; ModuleID = '35/909.c'
source_filename = "35/909.c"
target datalayout = "e-m:e-p270:32:32-p271:32:32-p272:64:64-i64:64-f80:128-n8:16:32:64-S128"
target triple = "x86_64-pc-linux-gnu"

@.str = private unnamed_addr constant [6 x i8] c"%d,%d\00", align 1
@.str.1 = private unnamed_addr constant [4 x i8] c"%lf\00", align 1
@.str.2 = private unnamed_addr constant [6 x i8] c"%d+%d\00", align 1
@.str.3 = private unnamed_addr constant [4 x i8] c"No\0A\00", align 1

; Function Attrs: noinline nounwind uwtable
define dso_local void @main() #0 {
  %1 = alloca [10 x [10 x double]], align 16
  %2 = alloca double, align 8
  %3 = alloca i32, align 4
  %4 = alloca i32, align 4
  %5 = alloca i32, align 4
  %6 = alloca i32, align 4
  %7 = alloca i32, align 4
  %8 = alloca i32, align 4
  %9 = alloca i32, align 4
  %10 = bitcast [10 x [10 x double]]* %1 to i8*
  call void @llvm.memset.p0i8.i64(i8* align 16 %10, i8 0, i64 800, i1 false)
  store i32 0, i32* %7, align 4
  %11 = call i32 (i8*, ...) @__isoc99_scanf(i8* getelementptr inbounds ([6 x i8], [6 x i8]* @.str, i64 0, i64 0), i32* %5, i32* %6)
  store i32 0, i32* %3, align 4
  br label %12

12:                                               ; preds = %33, %0
  %13 = load i32, i32* %3, align 4
  %14 = load i32, i32* %5, align 4
  %15 = icmp slt i32 %13, %14
  br i1 %15, label %16, label %36

16:                                               ; preds = %12
  store i32 0, i32* %4, align 4
  br label %17

17:                                               ; preds = %29, %16
  %18 = load i32, i32* %4, align 4
  %19 = load i32, i32* %6, align 4
  %20 = icmp slt i32 %18, %19
  br i1 %20, label %21, label %32

21:                                               ; preds = %17
  %22 = load i32, i32* %3, align 4
  %23 = sext i32 %22 to i64
  %24 = getelementptr inbounds [10 x [10 x double]], [10 x [10 x double]]* %1, i64 0, i64 %23
  %25 = load i32, i32* %4, align 4
  %26 = sext i32 %25 to i64
  %27 = getelementptr inbounds [10 x double], [10 x double]* %24, i64 0, i64 %26
  %28 = call i32 (i8*, ...) @__isoc99_scanf(i8* getelementptr inbounds ([4 x i8], [4 x i8]* @.str.1, i64 0, i64 0), double* %27)
  br label %29

29:                                               ; preds = %21
  %30 = load i32, i32* %4, align 4
  %31 = add nsw i32 %30, 1
  store i32 %31, i32* %4, align 4
  br label %17

32:                                               ; preds = %17
  br label %33

33:                                               ; preds = %32
  %34 = load i32, i32* %3, align 4
  %35 = add nsw i32 %34, 1
  store i32 %35, i32* %3, align 4
  br label %12

36:                                               ; preds = %12
  store i32 0, i32* %3, align 4
  br label %37

37:                                               ; preds = %115, %36
  %38 = load i32, i32* %3, align 4
  %39 = load i32, i32* %5, align 4
  %40 = icmp slt i32 %38, %39
  br i1 %40, label %41, label %118

41:                                               ; preds = %37
  %42 = load i32, i32* %3, align 4
  %43 = sext i32 %42 to i64
  %44 = getelementptr inbounds [10 x [10 x double]], [10 x [10 x double]]* %1, i64 0, i64 %43
  %45 = getelementptr inbounds [10 x double], [10 x double]* %44, i64 0, i64 0
  %46 = load double, double* %45, align 16
  store double %46, double* %2, align 8
  store i32 0, i32* %8, align 4
  store i32 0, i32* %4, align 4
  br label %47

47:                                               ; preds = %71, %41
  %48 = load i32, i32* %4, align 4
  %49 = load i32, i32* %6, align 4
  %50 = icmp slt i32 %48, %49
  br i1 %50, label %51, label %74

51:                                               ; preds = %47
  %52 = load i32, i32* %3, align 4
  %53 = sext i32 %52 to i64
  %54 = getelementptr inbounds [10 x [10 x double]], [10 x [10 x double]]* %1, i64 0, i64 %53
  %55 = load i32, i32* %4, align 4
  %56 = sext i32 %55 to i64
  %57 = getelementptr inbounds [10 x double], [10 x double]* %54, i64 0, i64 %56
  %58 = load double, double* %57, align 8
  %59 = load double, double* %2, align 8
  %60 = fcmp ogt double %58, %59
  br i1 %60, label %61, label %70

61:                                               ; preds = %51
  %62 = load i32, i32* %3, align 4
  %63 = sext i32 %62 to i64
  %64 = getelementptr inbounds [10 x [10 x double]], [10 x [10 x double]]* %1, i64 0, i64 %63
  %65 = load i32, i32* %4, align 4
  %66 = sext i32 %65 to i64
  %67 = getelementptr inbounds [10 x double], [10 x double]* %64, i64 0, i64 %66
  %68 = load double, double* %67, align 8
  store double %68, double* %2, align 8
  %69 = load i32, i32* %4, align 4
  store i32 %69, i32* %8, align 4
  br label %70

70:                                               ; preds = %61, %51
  br label %71

71:                                               ; preds = %70
  %72 = load i32, i32* %4, align 4
  %73 = add nsw i32 %72, 1
  store i32 %73, i32* %4, align 4
  br label %47

74:                                               ; preds = %47
  store i32 0, i32* %9, align 4
  br label %75

75:                                               ; preds = %107, %74
  %76 = load i32, i32* %9, align 4
  %77 = load i32, i32* %5, align 4
  %78 = icmp slt i32 %76, %77
  br i1 %78, label %79, label %110

79:                                               ; preds = %75
  %80 = load i32, i32* %9, align 4
  %81 = load i32, i32* %3, align 4
  %82 = icmp eq i32 %80, %81
  br i1 %82, label %83, label %84

83:                                               ; preds = %79
  br label %107

84:                                               ; preds = %79
  %85 = load i32, i32* %9, align 4
  %86 = sext i32 %85 to i64
  %87 = getelementptr inbounds [10 x [10 x double]], [10 x [10 x double]]* %1, i64 0, i64 %86
  %88 = load i32, i32* %8, align 4
  %89 = sext i32 %88 to i64
  %90 = getelementptr inbounds [10 x double], [10 x double]* %87, i64 0, i64 %89
  %91 = load double, double* %90, align 8
  %92 = load double, double* %2, align 8
  %93 = fcmp olt double %91, %92
  br i1 %93, label %94, label %95

94:                                               ; preds = %84
  br label %110

95:                                               ; preds = %84
  %96 = load i32, i32* %9, align 4
  %97 = load i32, i32* %5, align 4
  %98 = sub nsw i32 %97, 1
  %99 = icmp eq i32 %96, %98
  br i1 %99, label %100, label %106

100:                                              ; preds = %95
  %101 = load i32, i32* %3, align 4
  %102 = load i32, i32* %8, align 4
  %103 = call i32 (i8*, ...) @printf(i8* getelementptr inbounds ([6 x i8], [6 x i8]* @.str.2, i64 0, i64 0), i32 %101, i32 %102)
  %104 = load i32, i32* %7, align 4
  %105 = add nsw i32 %104, 1
  store i32 %105, i32* %7, align 4
  br label %110

106:                                              ; preds = %95
  br label %107

107:                                              ; preds = %106, %83
  %108 = load i32, i32* %9, align 4
  %109 = add nsw i32 %108, 1
  store i32 %109, i32* %9, align 4
  br label %75

110:                                              ; preds = %100, %94, %75
  %111 = load i32, i32* %7, align 4
  %112 = icmp eq i32 %111, 1
  br i1 %112, label %113, label %114

113:                                              ; preds = %110
  br label %118

114:                                              ; preds = %110
  br label %115

115:                                              ; preds = %114
  %116 = load i32, i32* %3, align 4
  %117 = add nsw i32 %116, 1
  store i32 %117, i32* %3, align 4
  br label %37

118:                                              ; preds = %113, %37
  %119 = load i32, i32* %7, align 4
  %120 = icmp eq i32 %119, 0
  br i1 %120, label %121, label %123

121:                                              ; preds = %118
  %122 = call i32 (i8*, ...) @printf(i8* getelementptr inbounds ([4 x i8], [4 x i8]* @.str.3, i64 0, i64 0))
  br label %123

123:                                              ; preds = %121, %118
  ret void
}

; Function Attrs: argmemonly nounwind willreturn
declare void @llvm.memset.p0i8.i64(i8* nocapture writeonly, i8, i64, i1 immarg) #1

declare dso_local i32 @__isoc99_scanf(i8*, ...) #2

declare dso_local i32 @printf(i8*, ...) #2


!llvm.module.flags = !{!0}
!llvm.ident = !{!1}

!0 = !{i32 1, !"wchar_size", i32 4}
!1 = !{!"clang version 10.0.0-4ubuntu1 "}
